; Function Attrs: nounwind uwtable
define internal void @data_source_handle_cancelled(ptr noundef %0, ptr readnone captures(none) %1) #0 {
  %.not = icmp eq ptr %0, null
  br i1 %.not, label %4, label %3

3:                                                ; preds = %2
  tail call void @Wayland_data_source_destroy(ptr noundef nonnull %0) #12
  br label %4

4:                                                ; preds = %3, %2
  ret void
}